; Function Attrs: nounwind uwtable
define ptr @l_Lean_PrettyPrinter_Delaborator_SubExpr_getPos___rarg___lambda__1(ptr noundef %0, ptr noundef %1) #0 {
  %3 = getelementptr inbounds nuw i8, ptr %0, i64 8
  %4 = load ptr, ptr %3, align 8, !tbaa !5
  %5 = ptrtoint ptr %4 to i64
  %6 = and i64 %5, 1
  %.not = icmp eq i64 %6, 0
  br i1 %.not, label %7, label %lean_inc.exit13

7:                                                ; preds = %2
  %.val.i = load i32, ptr %4, align 4, !tbaa !9
  %8 = icmp sgt i32 %.val.i, 0
  br i1 %8, label %9, label %11, !prof !12

9:                                                ; preds = %7
  %10 = add nuw i32 %.val.i, 1
  store i32 %10, ptr %4, align 4, !tbaa !9
  br label %lean_inc.exit13

11:                                               ; preds = %7
  %.not.i20 = icmp eq i32 %.val.i, 0
  br i1 %.not.i20, label %lean_inc.exit13, label %12

12:                                               ; preds = %11
  tail call void @lean_inc_ref_cold(ptr noundef nonnull %4) #5
  br label %lean_inc.exit13

lean_inc.exit13:                                  ; preds = %12, %11, %9, %2
  %13 = ptrtoint ptr %0 to i64
  %14 = and i64 %13, 1
  %.not27 = icmp eq i64 %14, 0
  br i1 %.not27, label %15, label %lean_dec.exit15

15:                                               ; preds = %lean_inc.exit13
  %16 = load i32, ptr %0, align 4, !tbaa !9
  %17 = icmp sgt i32 %16, 1
  br i1 %17, label %18, label %20, !prof !12

18:                                               ; preds = %15
  %19 = add nsw i32 %16, -1
  store i32 %19, ptr %0, align 4, !tbaa !9
  br label %lean_dec.exit15

20:                                               ; preds = %15
  %.not.i = icmp eq i32 %16, 0
  br i1 %.not.i, label %lean_dec.exit15, label %21

21:                                               ; preds = %20
  tail call void @lean_dec_ref_cold(ptr noundef nonnull %0) #5
  br label %lean_dec.exit15

lean_dec.exit15:                                  ; preds = %21, %20, %18, %lean_inc.exit13
  %22 = getelementptr inbounds nuw i8, ptr %4, i64 16
  %23 = load ptr, ptr %22, align 8, !tbaa !5
  %24 = ptrtoint ptr %23 to i64
  %25 = and i64 %24, 1
  %.not28 = icmp eq i64 %25, 0
  br i1 %.not28, label %26, label %lean_inc.exit12

26:                                               ; preds = %lean_dec.exit15
  %.val.i21 = load i32, ptr %23, align 4, !tbaa !9
  %27 = icmp sgt i32 %.val.i21, 0
  br i1 %27, label %28, label %30, !prof !12

28:                                               ; preds = %26
  %29 = add nuw i32 %.val.i21, 1
  store i32 %29, ptr %23, align 4, !tbaa !9
  br label %lean_inc.exit12

30:                                               ; preds = %26
  %.not.i22 = icmp eq i32 %.val.i21, 0
  br i1 %.not.i22, label %lean_inc.exit12, label %31

31:                                               ; preds = %30
  tail call void @lean_inc_ref_cold(ptr noundef nonnull %23) #5
  br label %lean_inc.exit12

lean_inc.exit12:                                  ; preds = %31, %30, %28, %lean_dec.exit15
  br i1 %.not, label %32, label %lean_dec.exit14

32:                                               ; preds = %lean_inc.exit12
  %33 = load i32, ptr %4, align 4, !tbaa !9
  %34 = icmp sgt i32 %33, 1
  br i1 %34, label %35, label %37, !prof !12

35:                                               ; preds = %32
  %36 = add nsw i32 %33, -1
  store i32 %36, ptr %4, align 4, !tbaa !9
  br label %lean_dec.exit14

37:                                               ; preds = %32
  %.not.i16 = icmp eq i32 %33, 0
  br i1 %.not.i16, label %lean_dec.exit14, label %38

38:                                               ; preds = %37
  tail call void @lean_dec_ref_cold(ptr noundef nonnull %4) #5
  br label %lean_dec.exit14

lean_dec.exit14:                                  ; preds = %38, %37, %35, %lean_inc.exit12
  %39 = getelementptr inbounds nuw i8, ptr %1, i64 16
  %40 = load ptr, ptr %39, align 8, !tbaa !5
  %41 = ptrtoint ptr %40 to i64
  %42 = and i64 %41, 1
  %.not29 = icmp eq i64 %42, 0
  br i1 %.not29, label %43, label %lean_inc.exit

43:                                               ; preds = %lean_dec.exit14
  %.val.i24 = load i32, ptr %40, align 4, !tbaa !9
  %44 = icmp sgt i32 %.val.i24, 0
  br i1 %44, label %45, label %47, !prof !12

45:                                               ; preds = %43
  %46 = add nuw i32 %.val.i24, 1
  store i32 %46, ptr %40, align 4, !tbaa !9
  br label %lean_inc.exit

47:                                               ; preds = %43
  %.not.i25 = icmp eq i32 %.val.i24, 0
  br i1 %.not.i25, label %lean_inc.exit, label %48

48:                                               ; preds = %47
  tail call void @lean_inc_ref_cold(ptr noundef nonnull %40) #5
  br label %lean_inc.exit

lean_inc.exit:                                    ; preds = %48, %47, %45, %lean_dec.exit14
  %49 = ptrtoint ptr %1 to i64
  %50 = and i64 %49, 1
  %.not30 = icmp eq i64 %50, 0
  br i1 %.not30, label %51, label %lean_dec.exit

51:                                               ; preds = %lean_inc.exit
  %52 = load i32, ptr %1, align 4, !tbaa !9
  %53 = icmp sgt i32 %52, 1
  br i1 %53, label %54, label %56, !prof !12

54:                                               ; preds = %51
  %55 = add nsw i32 %52, -1
  store i32 %55, ptr %1, align 4, !tbaa !9
  br label %lean_dec.exit

56:                                               ; preds = %51
  %.not.i18 = icmp eq i32 %52, 0
  br i1 %.not.i18, label %lean_dec.exit, label %57

57:                                               ; preds = %56
  tail call void @lean_dec_ref_cold(ptr noundef nonnull %1) #5
  br label %lean_dec.exit

lean_dec.exit:                                    ; preds = %57, %56, %54, %lean_inc.exit
  %58 = tail call ptr @lean_apply_2(ptr noundef %23, ptr noundef nonnull inttoptr (i64 1 to ptr), ptr noundef %40) #5
  ret ptr %58
}